target datalayout = "e-m:e-p270:32:32-p271:32:32-p272:64:64-i64:64-i128:128-f80:128-n8:16:32:64-S128"
target triple = "x86_64-unknown-linux-gnu"

%struct.BlockDirtyBitmapAdd = type { ptr, ptr, i8, i32, i8, i8, i8, i8 }

@.str.1 = private unnamed_addr constant [5 x i8] c"name\00", align 1
@.str.95 = private unnamed_addr constant [12 x i8] c"granularity\00", align 1
@.str.98 = private unnamed_addr constant [11 x i8] c"persistent\00", align 1
@.str.190 = private unnamed_addr constant [5 x i8] c"node\00", align 1
@.str.222 = private unnamed_addr constant [9 x i8] c"disabled\00", align 1

; Function Attrs: nounwind sspstrong uwtable
define dso_local zeroext i1 @visit_type_BlockDirtyBitmapAdd_members(ptr noundef %v, ptr noundef %obj, ptr noundef %errp) #0 {
entry:
  %retval = alloca i1, align 1
  %v.addr = alloca ptr, align 8
  %obj.addr = alloca ptr, align 8
  %errp.addr = alloca ptr, align 8
  store ptr %v, ptr %v.addr, align 8
  store ptr %obj, ptr %obj.addr, align 8
  store ptr %errp, ptr %errp.addr, align 8
  %0 = load ptr, ptr %v.addr, align 8
  %1 = load ptr, ptr %obj.addr, align 8
  %node = getelementptr inbounds %struct.BlockDirtyBitmapAdd, ptr %1, i32 0, i32 0
  %2 = load ptr, ptr %errp.addr, align 8
  %call = call zeroext i1 @visit_type_str(ptr noundef %0, ptr noundef @.str.190, ptr noundef %node, ptr noundef %2)
  br i1 %call, label %if.end, label %if.then

if.then:                                          ; preds = %entry
  store i1 false, ptr %retval, align 1
  br label %return

if.end:                                           ; preds = %entry
  %3 = load ptr, ptr %v.addr, align 8
  %4 = load ptr, ptr %obj.addr, align 8
  %name = getelementptr inbounds %struct.BlockDirtyBitmapAdd, ptr %4, i32 0, i32 1
  %5 = load ptr, ptr %errp.addr, align 8
  %call1 = call zeroext i1 @visit_type_str(ptr noundef %3, ptr noundef @.str.1, ptr noundef %name, ptr noundef %5)
  br i1 %call1, label %if.end3, label %if.then2

if.then2:                                         ; preds = %if.end
  store i1 false, ptr %retval, align 1
  br label %return

if.end3:                                          ; preds = %if.end
  %6 = load ptr, ptr %v.addr, align 8
  %7 = load ptr, ptr %obj.addr, align 8
  %has_granularity = getelementptr inbounds %struct.BlockDirtyBitmapAdd, ptr %7, i32 0, i32 2
  %call4 = call zeroext i1 @visit_optional(ptr noundef %6, ptr noundef @.str.95, ptr noundef %has_granularity)
  br i1 %call4, label %if.then5, label %if.end9

if.then5:                                         ; preds = %if.end3
  %8 = load ptr, ptr %v.addr, align 8
  %9 = load ptr, ptr %obj.addr, align 8
  %granularity = getelementptr inbounds %struct.BlockDirtyBitmapAdd, ptr %9, i32 0, i32 3
  %10 = load ptr, ptr %errp.addr, align 8
  %call6 = call zeroext i1 @visit_type_uint32(ptr noundef %8, ptr noundef @.str.95, ptr noundef %granularity, ptr noundef %10)
  br i1 %call6, label %if.end8, label %if.then7

if.then7:                                         ; preds = %if.then5
  store i1 false, ptr %retval, align 1
  br label %return

if.end8:                                          ; preds = %if.then5
  br label %if.end9

if.end9:                                          ; preds = %if.end8, %if.end3
  %11 = load ptr, ptr %v.addr, align 8
  %12 = load ptr, ptr %obj.addr, align 8
  %has_persistent = getelementptr inbounds %struct.BlockDirtyBitmapAdd, ptr %12, i32 0, i32 4
  %call10 = call zeroext i1 @visit_optional(ptr noundef %11, ptr noundef @.str.98, ptr noundef %has_persistent)
  br i1 %call10, label %if.then11, label %if.end15

if.then11:                                        ; preds = %if.end9
  %13 = load ptr, ptr %v.addr, align 8
  %14 = load ptr, ptr %obj.addr, align 8
  %persistent = getelementptr inbounds %struct.BlockDirtyBitmapAdd, ptr %14, i32 0, i32 5
  %15 = load ptr, ptr %errp.addr, align 8
  %call12 = call zeroext i1 @visit_type_bool(ptr noundef %13, ptr noundef @.str.98, ptr noundef %persistent, ptr noundef %15)
  br i1 %call12, label %if.end14, label %if.then13

if.then13:                                        ; preds = %if.then11
  store i1 false, ptr %retval, align 1
  br label %return

if.end14:                                         ; preds = %if.then11
  br label %if.end15

if.end15:                                         ; preds = %if.end14, %if.end9
  %16 = load ptr, ptr %v.addr, align 8
  %17 = load ptr, ptr %obj.addr, align 8
  %has_disabled = getelementptr inbounds %struct.BlockDirtyBitmapAdd, ptr %17, i32 0, i32 6
  %call16 = call zeroext i1 @visit_optional(ptr noundef %16, ptr noundef @.str.222, ptr noundef %has_disabled)
  br i1 %call16, label %if.then17, label %if.end21

if.then17:                                        ; preds = %if.end15
  %18 = load ptr, ptr %v.addr, align 8
  %19 = load ptr, ptr %obj.addr, align 8
  %disabled = getelementptr inbounds %struct.BlockDirtyBitmapAdd, ptr %19, i32 0, i32 7
  %20 = load ptr, ptr %errp.addr, align 8
  %call18 = call zeroext i1 @visit_type_bool(ptr noundef %18, ptr noundef @.str.222, ptr noundef %disabled, ptr noundef %20)
  br i1 %call18, label %if.end20, label %if.then19

if.then19:                                        ; preds = %if.then17
  store i1 false, ptr %retval, align 1
  br label %return

if.end20:                                         ; preds = %if.then17
  br label %if.end21

if.end21:                                         ; preds = %if.end20, %if.end15
  store i1 true, ptr %retval, align 1
  br label %return

return:                                           ; preds = %if.end21, %if.then19, %if.then13, %if.then7, %if.then2, %if.then
  %21 = load i1, ptr %retval, align 1
  ret i1 %21
}