; Function Attrs: nounwind sspstrong uwtable
define dso_local noundef zeroext i1 @visit_type_BlockDirtyBitmapAdd_members(ptr noundef %v, ptr noundef %obj, ptr noundef %errp) local_unnamed_addr #0 {
entry:
  %call = tail call zeroext i1 @visit_type_str(ptr noundef %v, ptr noundef nonnull @.str.190, ptr noundef %obj, ptr noundef %errp) #5
  br i1 %call, label %if.end, label %return

if.end:                                           ; preds = %entry
  %name = getelementptr inbounds nuw i8, ptr %obj, i64 8
  %call1 = tail call zeroext i1 @visit_type_str(ptr noundef %v, ptr noundef nonnull @.str.1, ptr noundef nonnull %name, ptr noundef %errp) #5
  br i1 %call1, label %if.end3, label %return

if.end3:                                          ; preds = %if.end
  %has_granularity = getelementptr inbounds nuw i8, ptr %obj, i64 16
  %call4 = tail call zeroext i1 @visit_optional(ptr noundef %v, ptr noundef nonnull @.str.95, ptr noundef nonnull %has_granularity) #5
  br i1 %call4, label %if.then5, label %if.end9

if.then5:                                         ; preds = %if.end3
  %granularity = getelementptr inbounds nuw i8, ptr %obj, i64 20
  %call6 = tail call zeroext i1 @visit_type_uint32(ptr noundef %v, ptr noundef nonnull @.str.95, ptr noundef nonnull %granularity, ptr noundef %errp) #5
  br i1 %call6, label %if.end9, label %return

if.end9:                                          ; preds = %if.then5, %if.end3
  %has_persistent = getelementptr inbounds nuw i8, ptr %obj, i64 24
  %call10 = tail call zeroext i1 @visit_optional(ptr noundef %v, ptr noundef nonnull @.str.98, ptr noundef nonnull %has_persistent) #5
  br i1 %call10, label %if.then11, label %if.end15

if.then11:                                        ; preds = %if.end9
  %persistent = getelementptr inbounds nuw i8, ptr %obj, i64 25
  %call12 = tail call zeroext i1 @visit_type_bool(ptr noundef %v, ptr noundef nonnull @.str.98, ptr noundef nonnull %persistent, ptr noundef %errp) #5
  br i1 %call12, label %if.end15, label %return

if.end15:                                         ; preds = %if.then11, %if.end9
  %has_disabled = getelementptr inbounds nuw i8, ptr %obj, i64 26
  %call16 = tail call zeroext i1 @visit_optional(ptr noundef %v, ptr noundef nonnull @.str.222, ptr noundef nonnull %has_disabled) #5
  br i1 %call16, label %if.then17, label %if.end21

if.then17:                                        ; preds = %if.end15
  %disabled = getelementptr inbounds nuw i8, ptr %obj, i64 27
  %call18 = tail call zeroext i1 @visit_type_bool(ptr noundef %v, ptr noundef nonnull @.str.222, ptr noundef nonnull %disabled, ptr noundef %errp) #5
  br i1 %call18, label %if.end21, label %return

if.end21:                                         ; preds = %if.then17, %if.end15
  br label %return

return:                                           ; preds = %if.then17, %if.then11, %if.then5, %if.end, %entry, %if.end21
  %retval.0 = phi i1 [ true, %if.end21 ], [ false, %entry ], [ false, %if.end ], [ false, %if.then5 ], [ false, %if.then11 ], [ false, %if.then17 ]
  ret i1 %retval.0
}